; Function Attrs: mustprogress nounwind uwtable
define internal fastcc noundef ptr @_ZL18getDereferenceExprPKN5clang4StmtEb(ptr noundef %0, i1 noundef zeroext %1) unnamed_addr #0 {
  %3 = load i8, ptr %0, align 8
  %4 = add i8 %3, 126
  %spec.select.i.i.i.i.i.i.i.i = icmp ult i8 %4, -127
  br i1 %spec.select.i.i.i.i.i.i.i.i, label %7, label %5

5:                                                ; preds = %2
  %6 = tail call noundef ptr @_ZN5clang4Expr22IgnoreParenLValueCastsEv(ptr noundef nonnull align 8 dereferenceable(16) %0) #20
  br label %7

7:                                                ; preds = %5, %2
  %.0 = phi ptr [ %6, %5 ], [ null, %2 ]
  br i1 %1, label %8, label %14

8:                                                ; preds = %7
  %9 = tail call { ptr, ptr } @_ZN5clang4ento15parseAssignmentEPKNS_4StmtE(ptr noundef nonnull %0) #17
  %10 = extractvalue { ptr, ptr } %9, 0
  %11 = extractvalue { ptr, ptr } %9, 1
  %12 = icmp ne ptr %10, null
  %13 = icmp ne ptr %11, null
  %or.cond = select i1 %12, i1 %13, i1 false
  %spec.select = select i1 %or.cond, ptr %11, ptr %.0
  br label %14

14:                                               ; preds = %8, %7
  %.1 = phi ptr [ %.0, %7 ], [ %spec.select, %8 ]
  ret ptr %.1
}